target datalayout = "e-m:e-p270:32:32-p271:32:32-p272:64:64-i64:64-i128:128-f80:128-n8:16:32:64-S128"
target triple = "x86_64-pc-linux-gnu"

%struct.pmix_byte_object = type { ptr, i64 }

; Function Attrs: inlinehint nounwind uwtable
define internal void @pmix_bfrops_base_tma_data_buffer_unload(ptr noundef %0, ptr noundef %1, ptr noundef %2, ptr noundef %3) #1 {
  %5 = alloca ptr, align 8
  %6 = alloca ptr, align 8
  %7 = alloca ptr, align 8
  %8 = alloca ptr, align 8
  %9 = alloca %struct.pmix_byte_object, align 8
  %10 = alloca i32, align 4
  store ptr %0, ptr %5, align 8, !tbaa !126
  store ptr %1, ptr %6, align 8, !tbaa !16
  store ptr %2, ptr %7, align 8, !tbaa !52
  store ptr %3, ptr %8, align 8, !tbaa !8
  call void @llvm.lifetime.start.p0(i64 16, ptr %9) #15
  call void @llvm.lifetime.start.p0(i64 4, ptr %10) #15
  %11 = load ptr, ptr %5, align 8, !tbaa !126
  %12 = call i32 @PMIx_Data_unload(ptr noundef %11, ptr noundef %9)
  store i32 %12, ptr %10, align 4, !tbaa !12
  %13 = load i32, ptr %10, align 4, !tbaa !12
  %14 = icmp eq i32 0, %13
  br i1 %14, label %15, label %22

15:                                               ; preds = %4
  %16 = getelementptr inbounds nuw %struct.pmix_byte_object, ptr %9, i32 0, i32 0
  %17 = load ptr, ptr %16, align 8, !tbaa !107
  %18 = load ptr, ptr %6, align 8, !tbaa !16
  store ptr %17, ptr %18, align 8, !tbaa !3
  %19 = getelementptr inbounds nuw %struct.pmix_byte_object, ptr %9, i32 0, i32 1
  %20 = load i64, ptr %19, align 8, !tbaa !109
  %21 = load ptr, ptr %7, align 8, !tbaa !52
  store i64 %20, ptr %21, align 8, !tbaa !30
  br label %25

22:                                               ; preds = %4
  %23 = load ptr, ptr %6, align 8, !tbaa !16
  store ptr null, ptr %23, align 8, !tbaa !3
  %24 = load ptr, ptr %7, align 8, !tbaa !52
  store i64 0, ptr %24, align 8, !tbaa !30
  br label %25

25:                                               ; preds = %22, %15
  call void @llvm.lifetime.end.p0(i64 4, ptr %10) #15
  call void @llvm.lifetime.end.p0(i64 16, ptr %9) #15
  ret void
}

; Function Attrs: nounwind uwtable
define void @PMIx_Data_buffer_unload(ptr noundef %0, ptr noundef %1, ptr noundef %2) #0 {
  %4 = alloca ptr, align 8
  %5 = alloca ptr, align 8
  %6 = alloca ptr, align 8
  store ptr %0, ptr %4, align 8, !tbaa !126
  store ptr %1, ptr %5, align 8, !tbaa !16
  store ptr %2, ptr %6, align 8, !tbaa !52
  %7 = load ptr, ptr %4, align 8, !tbaa !126
  %8 = load ptr, ptr %5, align 8, !tbaa !16
  %9 = load ptr, ptr %6, align 8, !tbaa !52
  call void @pmix_bfrops_base_tma_data_buffer_unload(ptr noundef %7, ptr noundef %8, ptr noundef %9, ptr noundef null)
  ret void
}