; Function Attrs: nounwind uwtable
define void @PMIx_Data_buffer_unload(ptr noundef %0, ptr noundef writeonly captures(none) initializes((0, 8)) %1, ptr noundef writeonly captures(none) initializes((0, 8)) %2) local_unnamed_addr #6 {
  %4 = alloca %struct.pmix_byte_object, align 8
  call void @llvm.lifetime.start.p0(i64 16, ptr nonnull %4) #44
  %5 = call i32 @PMIx_Data_unload(ptr noundef %0, ptr noundef nonnull %4) #44
  %6 = icmp eq i32 %5, 0
  %7 = load ptr, ptr %4, align 8
  %8 = getelementptr inbounds nuw i8, ptr %4, i64 8
  %9 = load i64, ptr %8, align 8
  %.sink.i = select i1 %6, ptr %7, ptr null
  %storemerge.i = select i1 %6, i64 %9, i64 0
  store ptr %.sink.i, ptr %1, align 8, !tbaa !12
  store i64 %storemerge.i, ptr %2, align 8, !tbaa !103
  call void @llvm.lifetime.end.p0(i64 16, ptr nonnull %4) #44
  ret void
}